target datalayout = "e-m:e-p270:32:32-p271:32:32-p272:64:64-i64:64-i128:128-f80:128-n8:16:32:64-S128"
target triple = "x86_64-pc-linux-gnu"

%class.VectorSet = type { i32, ptr, i32, ptr }
%class.Thread = type { %class.ThreadShadow.base, i64, [43 x i64], ptr, ptr, i32, ptr, i64, i64, %class.ThreadLocalAllocBuffer, i64, %class.ThreadHeapSampler, %class.ThreadStatisticalInfo, %class.JfrThreadLocal, ptr, ptr, ptr, ptr, ptr, ptr, i64, i32, i32, ptr, i32, i32, i32, i32, i8, ptr }
%class.ThreadShadow.base = type <{ ptr, ptr, ptr, i32 }>
%class.ThreadLocalAllocBuffer = type <{ ptr, ptr, ptr, ptr, ptr, i64, i64, i64, i64, i32, i32, i32, i32, i64, %class.AdaptiveWeightedAverage, [4 x i8] }>
%class.AdaptiveWeightedAverage = type { float, i32, i32, i8, float }
%class.ThreadHeapSampler = type { i64 }
%class.ThreadStatisticalInfo = type { i64, i64 }
%class.JfrThreadLocal = type <{ ptr, ptr, ptr, ptr, ptr, ptr, ptr, ptr, ptr, ptr, %class.RefCountHandle, i64, i64, i64, i64, i64, i64, i64, i64, i64, i64, i64, i32, i32, i32, i16, i8, i8, i8, i8, i8, [5 x i8] }>
%class.RefCountHandle = type { ptr }
%class.Arena = type { i8, i8, i64, ptr, ptr, ptr, ptr }

@_ZN6Thread12_thr_currentE = external thread_local global ptr, align 8

; Function Attrs: mustprogress nounwind uwtable
define linkonce_odr hidden noundef i64 @_Z13pointer_deltaPVKvS0_m(ptr noundef %0, ptr noundef %1, i64 noundef %2) #1 comdat {
  %4 = alloca ptr, align 8
  %5 = alloca ptr, align 8
  %6 = alloca i64, align 8
  store ptr %0, ptr %4, align 8
  store ptr %1, ptr %5, align 8
  store i64 %2, ptr %6, align 8
  %7 = load ptr, ptr %4, align 8
  %8 = ptrtoint ptr %7 to i64
  %9 = load ptr, ptr %5, align 8
  %10 = ptrtoint ptr %9 to i64
  %11 = sub i64 %8, %10
  %12 = load i64, ptr %6, align 8
  %13 = udiv i64 %11, %12
  ret i64 %13
}

; Function Attrs: mustprogress nounwind uwtable
define linkonce_odr hidden noundef i64 @_Z10align_downImiTnNSt9enable_ifIXcvbsr3std11is_integralIT_EE5valueEiE4typeELi0EES1_S1_T0_(i64 noundef %0, i32 noundef %1) #1 comdat {
  %3 = alloca i64, align 8
  %4 = alloca i32, align 4
  %5 = alloca i64, align 8
  store i64 %0, ptr %3, align 8
  store i32 %1, ptr %4, align 4
  %6 = load i64, ptr %3, align 8
  %7 = load i32, ptr %4, align 4
  %8 = call noundef i32 @_ZL14alignment_maskIiTnNSt9enable_ifIXcvbsr3std11is_integralIT_EE5valueEiE4typeELi0EES1_S1_(i32 noundef %7)
  %9 = sext i32 %8 to i64
  %10 = xor i64 %9, -1
  %11 = and i64 %6, %10
  store i64 %11, ptr %5, align 8
  %12 = load i64, ptr %5, align 8
  ret i64 %12
}

; Function Attrs: mustprogress nounwind uwtable
define linkonce_odr hidden noundef i64 @_Z12checked_castImmET_T0_(i64 noundef %0) #1 comdat {
  %2 = alloca i64, align 8
  %3 = alloca i64, align 8
  store i64 %0, ptr %2, align 8
  %4 = load i64, ptr %2, align 8
  store i64 %4, ptr %3, align 8
  %5 = load i64, ptr %3, align 8
  ret i64 %5
}

; Function Attrs: mustprogress nounwind uwtable
define internal noundef i32 @_ZL14alignment_maskIiTnNSt9enable_ifIXcvbsr3std11is_integralIT_EE5valueEiE4typeELi0EES1_S1_(i32 noundef %0) #1 {
  %2 = alloca i32, align 4
  store i32 %0, ptr %2, align 4
  %3 = load i32, ptr %2, align 4
  %4 = sub nsw i32 %3, 1
  ret i32 %4
}

; Function Attrs: mustprogress nounwind uwtable
define linkonce_odr hidden noundef ptr @_ZN5Arena16internal_amallocEmN17AllocFailStrategy13AllocFailEnumE(ptr noundef nonnull align 8 dereferenceable(48) %0, i64 noundef %1, i32 noundef %2) #1 comdat align 2 {
  %4 = alloca ptr, align 8
  %5 = alloca ptr, align 8
  %6 = alloca i64, align 8
  %7 = alloca i32, align 4
  %8 = alloca ptr, align 8
  store ptr %0, ptr %5, align 8
  store i64 %1, ptr %6, align 8
  store i32 %2, ptr %7, align 4
  %9 = load ptr, ptr %5, align 8
  %10 = getelementptr inbounds %class.Arena, ptr %9, i32 0, i32 6
  %11 = load ptr, ptr %10, align 8
  %12 = getelementptr inbounds %class.Arena, ptr %9, i32 0, i32 5
  %13 = load ptr, ptr %12, align 8
  %14 = call noundef i64 @_Z13pointer_deltaPVKvS0_m(ptr noundef %11, ptr noundef %13, i64 noundef 1)
  %15 = load i64, ptr %6, align 8
  %16 = icmp uge i64 %14, %15
  br i1 %16, label %17, label %25

17:                                               ; preds = %3
  %18 = getelementptr inbounds %class.Arena, ptr %9, i32 0, i32 5
  %19 = load ptr, ptr %18, align 8
  store ptr %19, ptr %8, align 8
  %20 = load i64, ptr %6, align 8
  %21 = getelementptr inbounds %class.Arena, ptr %9, i32 0, i32 5
  %22 = load ptr, ptr %21, align 8
  %23 = getelementptr inbounds i8, ptr %22, i64 %20
  store ptr %23, ptr %21, align 8
  %24 = load ptr, ptr %8, align 8
  store ptr %24, ptr %4, align 8
  br label %29

25:                                               ; preds = %3
  %26 = load i64, ptr %6, align 8
  %27 = load i32, ptr %7, align 4
  %28 = call noundef ptr @_ZN5Arena4growEmN17AllocFailStrategy13AllocFailEnumE(ptr noundef nonnull align 8 dereferenceable(48) %9, i64 noundef %26, i32 noundef %27)
  store ptr %28, ptr %4, align 8
  br label %29

29:                                               ; preds = %25, %17
  %30 = load ptr, ptr %4, align 8
  ret ptr %30
}

; Function Attrs: mustprogress nounwind uwtable
define linkonce_odr hidden noundef i64 @_Z8align_upImiTnNSt9enable_ifIXcvbsr3std11is_integralIT_EE5valueEiE4typeELi0EES1_S1_T0_(i64 noundef %0, i32 noundef %1) #1 comdat {
  %3 = alloca i64, align 8
  %4 = alloca i32, align 4
  %5 = alloca i64, align 8
  store i64 %0, ptr %3, align 8
  store i32 %1, ptr %4, align 4
  %6 = load i64, ptr %3, align 8
  %7 = load i32, ptr %4, align 4
  %8 = call noundef i32 @_ZL14alignment_maskIiTnNSt9enable_ifIXcvbsr3std11is_integralIT_EE5valueEiE4typeELi0EES1_S1_(i32 noundef %7)
  %9 = sext i32 %8 to i64
  %10 = add i64 %6, %9
  %11 = call noundef i64 @_Z12checked_castImmET_T0_(i64 noundef %10)
  store i64 %11, ptr %5, align 8
  %12 = load i64, ptr %5, align 8
  %13 = load i32, ptr %4, align 4
  %14 = call noundef i64 @_Z10align_downImiTnNSt9enable_ifIXcvbsr3std11is_integralIT_EE5valueEiE4typeELi0EES1_S1_T0_(i64 noundef %12, i32 noundef %13)
  ret i64 %14
}

; Function Attrs: mustprogress nounwind uwtable
define linkonce_odr hidden noundef ptr @_ZN5Arena7AmallocEmN17AllocFailStrategy13AllocFailEnumE(ptr noundef nonnull align 8 dereferenceable(48) %0, i64 noundef %1, i32 noundef %2) #1 comdat align 2 {
  %4 = alloca ptr, align 8
  %5 = alloca i64, align 8
  %6 = alloca i32, align 4
  store ptr %0, ptr %4, align 8
  store i64 %1, ptr %5, align 8
  store i32 %2, ptr %6, align 4
  %7 = load ptr, ptr %4, align 8
  %8 = load i64, ptr %5, align 8
  %9 = call noundef i64 @_Z8align_upImiTnNSt9enable_ifIXcvbsr3std11is_integralIT_EE5valueEiE4typeELi0EES1_S1_T0_(i64 noundef %8, i32 noundef 8)
  store i64 %9, ptr %5, align 8
  %10 = load i64, ptr %5, align 8
  %11 = load i32, ptr %6, align 4
  %12 = call noundef ptr @_ZN5Arena16internal_amallocEmN17AllocFailStrategy13AllocFailEnumE(ptr noundef nonnull align 8 dereferenceable(48) %7, i64 noundef %10, i32 noundef %11)
  ret ptr %12
}

; Function Attrs: mustprogress nounwind uwtable
define linkonce_odr hidden noundef ptr @_ZN6Thread15current_or_nullEv() #1 comdat align 2 {
  %1 = call align 8 ptr @llvm.threadlocal.address.p0(ptr align 8 @_ZN6Thread12_thr_currentE)
  %2 = load ptr, ptr %1, align 8
  ret ptr %2
}

; Function Attrs: mustprogress nounwind uwtable
define hidden void @_ZN9VectorSet4initEP5Arena(ptr noundef nonnull align 8 dereferenceable(32) %0, ptr noundef %1) #1 align 2 {
  %3 = alloca ptr, align 8
  %4 = alloca ptr, align 8
  store ptr %0, ptr %3, align 8
  store ptr %1, ptr %4, align 8
  %5 = load ptr, ptr %3, align 8
  %6 = getelementptr inbounds %class.VectorSet, ptr %5, i32 0, i32 0
  store i32 2, ptr %6, align 8
  %7 = load ptr, ptr %4, align 8
  %8 = call noundef ptr @_ZN5Arena7AmallocEmN17AllocFailStrategy13AllocFailEnumE(ptr noundef nonnull align 8 dereferenceable(48) %7, i64 noundef 8, i32 noundef 0)
  %9 = getelementptr inbounds %class.VectorSet, ptr %5, i32 0, i32 1
  store ptr %8, ptr %9, align 8
  %10 = getelementptr inbounds %class.VectorSet, ptr %5, i32 0, i32 2
  store i32 2, ptr %10, align 8
  %11 = load ptr, ptr %4, align 8
  %12 = getelementptr inbounds %class.VectorSet, ptr %5, i32 0, i32 3
  store ptr %11, ptr %12, align 8
  %13 = getelementptr inbounds %class.VectorSet, ptr %5, i32 0, i32 1
  %14 = load ptr, ptr %13, align 8
  %15 = getelementptr inbounds i32, ptr %14, i64 0
  store i32 0, ptr %15, align 4
  %16 = getelementptr inbounds %class.VectorSet, ptr %5, i32 0, i32 1
  %17 = load ptr, ptr %16, align 8
  %18 = getelementptr inbounds i32, ptr %17, i64 1
  store i32 0, ptr %18, align 4
  ret void
}

; Function Attrs: mustprogress nounwind uwtable
define linkonce_odr hidden noundef ptr @_ZNK6Thread13resource_areaEv(ptr noundef nonnull align 8 dereferenceable(888) %0) #1 comdat align 2 {
  %2 = alloca ptr, align 8
  store ptr %0, ptr %2, align 8
  %3 = load ptr, ptr %2, align 8
  %4 = getelementptr inbounds %class.Thread, ptr %3, i32 0, i32 16
  %5 = load ptr, ptr %4, align 8
  ret ptr %5
}

; Function Attrs: mustprogress nounwind uwtable
define linkonce_odr hidden noundef ptr @_ZN6Thread7currentEv() #1 comdat align 2 {
  %1 = alloca ptr, align 8
  %2 = call noundef ptr @_ZN6Thread15current_or_nullEv()
  store ptr %2, ptr %1, align 8
  %3 = load ptr, ptr %1, align 8
  ret ptr %3
}

; Function Attrs: mustprogress nounwind uwtable
define hidden void @_ZN9VectorSetC2Ev(ptr noundef nonnull align 8 dereferenceable(32) %0) unnamed_addr #1 align 2 {
  %2 = alloca ptr, align 8
  store ptr %0, ptr %2, align 8
  %3 = load ptr, ptr %2, align 8
  %4 = call noundef ptr @_ZN6Thread7currentEv()
  %5 = call noundef ptr @_ZNK6Thread13resource_areaEv(ptr noundef nonnull align 8 dereferenceable(888) %4)
  call void @_ZN9VectorSet4initEP5Arena(ptr noundef nonnull align 8 dereferenceable(32) %3, ptr noundef %5)
  ret void
}