; Function Attrs: mustprogress nounwind uwtable
define hidden void @_ZN9VectorSetC2Ev(ptr nocapture noundef nonnull align 8 dereferenceable(32) %0) unnamed_addr #0 align 2 {
  %2 = tail call align 8 ptr @llvm.threadlocal.address.p0(ptr align 8 @_ZN6Thread12_thr_currentE)
  %3 = load ptr, ptr %2, align 8
  %4 = getelementptr inbounds i8, ptr %3, i64 800
  %5 = load ptr, ptr %4, align 8
  store i32 2, ptr %0, align 8
  %6 = getelementptr inbounds i8, ptr %5, i64 40
  %7 = load ptr, ptr %6, align 8
  %8 = getelementptr inbounds i8, ptr %5, i64 32
  %9 = load ptr, ptr %8, align 8
  %10 = ptrtoint ptr %7 to i64
  %11 = ptrtoint ptr %9 to i64
  %12 = sub i64 %10, %11
  %.not.i.i.i = icmp ult i64 %12, 8
  br i1 %.not.i.i.i, label %15, label %13

13:                                               ; preds = %1
  %14 = getelementptr inbounds i8, ptr %9, i64 8
  store ptr %14, ptr %8, align 8
  br label %_ZN9VectorSet4initEP5Arena.exit

15:                                               ; preds = %1
  %16 = tail call noundef ptr @_ZN5Arena4growEmN17AllocFailStrategy13AllocFailEnumE(ptr noundef nonnull align 8 dereferenceable(48) %5, i64 noundef 8, i32 noundef 0) #6
  br label %_ZN9VectorSet4initEP5Arena.exit

_ZN9VectorSet4initEP5Arena.exit:                  ; preds = %13, %15
  %.0.i.i.i = phi ptr [ %9, %13 ], [ %16, %15 ]
  %17 = getelementptr inbounds i8, ptr %0, i64 8
  store ptr %.0.i.i.i, ptr %17, align 8
  %18 = getelementptr inbounds i8, ptr %0, i64 16
  store i32 2, ptr %18, align 8
  %19 = getelementptr inbounds i8, ptr %0, i64 24
  store ptr %5, ptr %19, align 8
  store i32 0, ptr %.0.i.i.i, align 4
  %20 = load ptr, ptr %17, align 8
  %21 = getelementptr inbounds i8, ptr %20, i64 4
  store i32 0, ptr %21, align 4
  ret void
}